target datalayout = "e-m:e-p270:32:32-p271:32:32-p272:64:64-i64:64-i128:128-f80:128-n8:16:32:64-S128"
target triple = "x86_64-pc-linux-gnu"

%struct.Vec_Wrd_t_ = type { i32, i32, ptr }
%struct.timespec = type { i64, i64 }

@.str.7 = private unnamed_addr constant [20 x i8] c"M = %2d  N = %2d : \00", align 1
@.str.8 = private unnamed_addr constant [11 x i8] c"K = %6d   \00", align 1
@.str.9 = private unnamed_addr constant [17 x i8] c"Total = %12.0f  \00", align 1
@.str.10 = private unnamed_addr constant [17 x i8] c"Distinct = %8d  \00", align 1
@.str.11 = private unnamed_addr constant [15 x i8] c"Reduction time\00", align 1
@.str.12 = private unnamed_addr constant [36 x i8] c"Solution with %d variables found.  \00", align 1
@.str.13 = private unnamed_addr constant [14 x i8] c"Covering time\00", align 1
@.str.28 = private unnamed_addr constant [5 x i8] c"%s =\00", align 1
@.str.29 = private unnamed_addr constant [11 x i8] c"%9.2f sec\0A\00", align 1

; Function Attrs: inlinehint nounwind uwtable
define internal void @Vec_WrdFree(ptr noundef %0) #2 {
  %2 = alloca ptr, align 8
  store ptr %0, ptr %2, align 8, !tbaa !7
  %3 = load ptr, ptr %2, align 8, !tbaa !7
  %4 = getelementptr inbounds nuw %struct.Vec_Wrd_t_, ptr %3, i32 0, i32 2
  %5 = load ptr, ptr %4, align 8, !tbaa !16
  %6 = icmp ne ptr %5, null
  br i1 %6, label %7, label %13

7:                                                ; preds = %1
  %8 = load ptr, ptr %2, align 8, !tbaa !7
  %9 = getelementptr inbounds nuw %struct.Vec_Wrd_t_, ptr %8, i32 0, i32 2
  %10 = load ptr, ptr %9, align 8, !tbaa !16
  call void @free(ptr noundef %10) #13
  %11 = load ptr, ptr %2, align 8, !tbaa !7
  %12 = getelementptr inbounds nuw %struct.Vec_Wrd_t_, ptr %11, i32 0, i32 2
  store ptr null, ptr %12, align 8, !tbaa !16
  br label %14

13:                                               ; preds = %1
  br label %14

14:                                               ; preds = %13, %7
  %15 = load ptr, ptr %2, align 8, !tbaa !7
  %16 = icmp ne ptr %15, null
  br i1 %16, label %17, label %19

17:                                               ; preds = %14
  %18 = load ptr, ptr %2, align 8, !tbaa !7
  call void @free(ptr noundef %18) #13
  store ptr null, ptr %2, align 8, !tbaa !7
  br label %20

19:                                               ; preds = %14
  br label %20

20:                                               ; preds = %19, %17
  ret void
}

; Function Attrs: inlinehint nounwind uwtable
define internal void @Abc_PrintTime(i32 noundef %0, ptr noundef %1, i64 noundef %2) #2 {
  %4 = alloca i32, align 4
  %5 = alloca ptr, align 8
  %6 = alloca i64, align 8
  store i32 %0, ptr %4, align 4, !tbaa !3
  store ptr %1, ptr %5, align 8, !tbaa !39
  store i64 %2, ptr %6, align 8, !tbaa !17
  %7 = load ptr, ptr %5, align 8, !tbaa !39
  call void (i32, ptr, ...) @Abc_Print(i32 noundef 1, ptr noundef @.str.28, ptr noundef %7)
  %8 = load i64, ptr %6, align 8, !tbaa !17
  %9 = sitofp i64 %8 to double
  %10 = fmul double 1.000000e+00, %9
  %11 = fdiv double %10, 1.000000e+06
  call void (i32, ptr, ...) @Abc_Print(i32 noundef 1, ptr noundef @.str.29, double noundef %11)
  ret void
}

; Function Attrs: inlinehint nounwind uwtable
define internal i32 @Vec_WrdSize(ptr noundef %0) #2 {
  %2 = alloca ptr, align 8
  store ptr %0, ptr %2, align 8, !tbaa !7
  %3 = load ptr, ptr %2, align 8, !tbaa !7
  %4 = getelementptr inbounds nuw %struct.Vec_Wrd_t_, ptr %3, i32 0, i32 1
  %5 = load i32, ptr %4, align 4, !tbaa !12
  ret i32 %5
}

; Function Attrs: inlinehint nounwind uwtable
define internal i64 @Abc_Clock() #2 {
  %1 = alloca i64, align 8
  %2 = alloca %struct.timespec, align 8
  %3 = alloca i32, align 4
  %4 = alloca i64, align 8
  call void @llvm.lifetime.start.p0(i64 16, ptr %2) #13
  %5 = call i32 @clock_gettime(i32 noundef 1, ptr noundef %2) #13
  %6 = icmp slt i32 %5, 0
  br i1 %6, label %7, label %8

7:                                                ; preds = %0
  store i64 -1, ptr %1, align 8
  store i32 1, ptr %3, align 4
  br label %19

8:                                                ; preds = %0
  call void @llvm.lifetime.start.p0(i64 8, ptr %4) #13
  %9 = getelementptr inbounds nuw %struct.timespec, ptr %2, i32 0, i32 0
  %10 = load i64, ptr %9, align 8, !tbaa !67
  %11 = mul nsw i64 %10, 1000000
  store i64 %11, ptr %4, align 8, !tbaa !17
  %12 = getelementptr inbounds nuw %struct.timespec, ptr %2, i32 0, i32 1
  %13 = load i64, ptr %12, align 8, !tbaa !69
  %14 = mul nsw i64 %13, 1000000
  %15 = sdiv i64 %14, 1000000000
  %16 = load i64, ptr %4, align 8, !tbaa !17
  %17 = add nsw i64 %16, %15
  store i64 %17, ptr %4, align 8, !tbaa !17
  %18 = load i64, ptr %4, align 8, !tbaa !17
  store i64 %18, ptr %1, align 8
  store i32 1, ptr %3, align 4
  call void @llvm.lifetime.end.p0(i64 8, ptr %4) #13
  br label %19

19:                                               ; preds = %8, %7
  call void @llvm.lifetime.end.p0(i64 16, ptr %2) #13
  %20 = load i64, ptr %1, align 8
  ret i64 %20
}

; Function Attrs: nounwind uwtable
define void @Abc_SuppTest(i32 noundef %0, i32 noundef %1, i32 noundef %2, i32 noundef %3, i32 noundef %4) #0 {
  %6 = alloca i32, align 4
  %7 = alloca i32, align 4
  %8 = alloca i32, align 4
  %9 = alloca i32, align 4
  %10 = alloca i32, align 4
  %11 = alloca i32, align 4
  %12 = alloca [64 x i64], align 16
  %13 = alloca i64, align 8
  %14 = alloca ptr, align 8
  %15 = alloca ptr, align 8
  store i32 %0, ptr %6, align 4, !tbaa !3
  store i32 %1, ptr %7, align 4, !tbaa !3
  store i32 %2, ptr %8, align 4, !tbaa !3
  store i32 %3, ptr %9, align 4, !tbaa !3
  store i32 %4, ptr %10, align 4, !tbaa !3
  call void @llvm.lifetime.start.p0(i64 4, ptr %11) #13
  call void @llvm.lifetime.start.p0(i64 512, ptr %12) #13
  call void @llvm.lifetime.start.p0(i64 8, ptr %13) #13
  %16 = call i64 @Abc_Clock()
  store i64 %16, ptr %13, align 8, !tbaa !17
  call void @llvm.lifetime.start.p0(i64 8, ptr %14) #13
  %17 = load i32, ptr %6, align 4, !tbaa !3
  %18 = load i32, ptr %7, align 4, !tbaa !3
  %19 = call ptr @Abc_SuppGen(i32 noundef %17, i32 noundef %18)
  store ptr %19, ptr %14, align 8, !tbaa !7
  call void @llvm.lifetime.start.p0(i64 8, ptr %15) #13
  %20 = load i32, ptr %8, align 4, !tbaa !3
  %21 = icmp ne i32 %20, 0
  br i1 %21, label %22, label %26

22:                                               ; preds = %5
  %23 = load i32, ptr %6, align 4, !tbaa !3
  %24 = load i32, ptr %7, align 4, !tbaa !3
  %25 = call ptr @Abc_SuppGenPairs2(i32 noundef %23, i32 noundef %24)
  br label %30

26:                                               ; preds = %5
  %27 = load ptr, ptr %14, align 8, !tbaa !7
  %28 = load i32, ptr %7, align 4, !tbaa !3
  %29 = call ptr @Abc_SuppGenPairs(ptr noundef %27, i32 noundef %28)
  br label %30

30:                                               ; preds = %26, %22
  %31 = phi ptr [ %25, %22 ], [ %29, %26 ]
  store ptr %31, ptr %15, align 8, !tbaa !7
  %32 = load i32, ptr %6, align 4, !tbaa !3
  %33 = load i32, ptr %7, align 4, !tbaa !3
  %34 = call i32 (ptr, ...) @printf(ptr noundef @.str.7, i32 noundef %32, i32 noundef %33)
  %35 = load ptr, ptr %14, align 8, !tbaa !7
  %36 = call i32 @Vec_WrdSize(ptr noundef %35)
  %37 = call i32 (ptr, ...) @printf(ptr noundef @.str.8, i32 noundef %36)
  %38 = load ptr, ptr %14, align 8, !tbaa !7
  %39 = call i32 @Vec_WrdSize(ptr noundef %38)
  %40 = sitofp i32 %39 to double
  %41 = fmul double 5.000000e-01, %40
  %42 = load ptr, ptr %14, align 8, !tbaa !7
  %43 = call i32 @Vec_WrdSize(ptr noundef %42)
  %44 = sub nsw i32 %43, 1
  %45 = sitofp i32 %44 to double
  %46 = fmul double %41, %45
  %47 = call i32 (ptr, ...) @printf(ptr noundef @.str.9, double noundef %46)
  %48 = load ptr, ptr %15, align 8, !tbaa !7
  %49 = call i32 @Vec_WrdSize(ptr noundef %48)
  %50 = call i32 (ptr, ...) @printf(ptr noundef @.str.10, i32 noundef %49)
  %51 = call i64 @Abc_Clock()
  %52 = load i64, ptr %13, align 8, !tbaa !17
  %53 = sub nsw i64 %51, %52
  call void @Abc_PrintTime(i32 noundef 1, ptr noundef @.str.11, i64 noundef %53)
  %54 = call i64 @Abc_Clock()
  store i64 %54, ptr %13, align 8, !tbaa !17
  %55 = getelementptr inbounds [64 x i64], ptr %12, i64 0, i64 0
  %56 = load ptr, ptr %15, align 8, !tbaa !7
  %57 = load i32, ptr %7, align 4, !tbaa !3
  %58 = load i32, ptr %10, align 4, !tbaa !3
  %59 = call i32 @Abc_SuppMinimize(ptr noundef %55, ptr noundef %56, i32 noundef %57, i32 noundef %58)
  store i32 %59, ptr %11, align 4, !tbaa !3
  %60 = load i32, ptr %11, align 4, !tbaa !3
  %61 = call i32 (ptr, ...) @printf(ptr noundef @.str.12, i32 noundef %60)
  %62 = call i64 @Abc_Clock()
  %63 = load i64, ptr %13, align 8, !tbaa !17
  %64 = sub nsw i64 %62, %63
  call void @Abc_PrintTime(i32 noundef 1, ptr noundef @.str.13, i64 noundef %64)
  %65 = load i32, ptr %9, align 4, !tbaa !3
  %66 = icmp ne i32 %65, 0
  br i1 %66, label %67, label %72

67:                                               ; preds = %30
  %68 = load ptr, ptr %14, align 8, !tbaa !7
  %69 = getelementptr inbounds [64 x i64], ptr %12, i64 0, i64 0
  %70 = load i32, ptr %7, align 4, !tbaa !3
  %71 = load i32, ptr %11, align 4, !tbaa !3
  call void @Abc_SuppVerify(ptr noundef %68, ptr noundef %69, i32 noundef %70, i32 noundef %71)
  br label %72

72:                                               ; preds = %67, %30
  %73 = load ptr, ptr %15, align 8, !tbaa !7
  call void @Vec_WrdFree(ptr noundef %73)
  %74 = load ptr, ptr %14, align 8, !tbaa !7
  call void @Vec_WrdFree(ptr noundef %74)
  call void @llvm.lifetime.end.p0(i64 8, ptr %15) #13
  call void @llvm.lifetime.end.p0(i64 8, ptr %14) #13
  call void @llvm.lifetime.end.p0(i64 8, ptr %13) #13
  call void @llvm.lifetime.end.p0(i64 512, ptr %12) #13
  call void @llvm.lifetime.end.p0(i64 4, ptr %11) #13
  ret void
}