; Function Attrs: nounwind uwtable
define void @Abc_SuppTest(i32 noundef %0, i32 noundef %1, i32 noundef %2, i32 noundef %3, i32 noundef %4) local_unnamed_addr #0 {
  %6 = alloca %struct.timespec, align 8
  %7 = alloca %struct.timespec, align 8
  %8 = alloca %struct.timespec, align 8
  %9 = alloca %struct.timespec, align 8
  %10 = alloca [64 x i64], align 16
  call void @llvm.lifetime.start.p0(i64 512, ptr nonnull %10) #24
  call void @llvm.lifetime.start.p0(i64 16, ptr nonnull %9) #24
  %11 = call i32 @clock_gettime(i32 noundef 1, ptr noundef nonnull %9) #24
  %12 = icmp slt i32 %11, 0
  br i1 %12, label %Abc_Clock.exit, label %13

13:                                               ; preds = %5
  %14 = load i64, ptr %9, align 8, !tbaa !34
  %.neg36 = mul i64 %14, -1000000
  %15 = getelementptr inbounds nuw i8, ptr %9, i64 8
  %16 = load i64, ptr %15, align 8, !tbaa !36
  %.neg = sdiv i64 %16, -1000
  %.neg37 = add i64 %.neg, %.neg36
  br label %Abc_Clock.exit

Abc_Clock.exit:                                   ; preds = %5, %13
  %.0.i.neg = phi i64 [ %.neg37, %13 ], [ 1, %5 ]
  call void @llvm.lifetime.end.p0(i64 16, ptr nonnull %9) #24
  %17 = call ptr @Abc_SuppGen(i32 noundef %0, i32 noundef %1)
  %.not = icmp eq i32 %2, 0
  br i1 %.not, label %20, label %18

18:                                               ; preds = %Abc_Clock.exit
  %19 = call ptr @Abc_SuppGenPairs2(i32 noundef %0, i32 noundef %1)
  br label %22

20:                                               ; preds = %Abc_Clock.exit
  %21 = call ptr @Abc_SuppGenPairs(ptr noundef %17, i32 noundef %1)
  br label %22

22:                                               ; preds = %20, %18
  %23 = phi ptr [ %19, %18 ], [ %21, %20 ]
  %24 = call i32 (ptr, ...) @printf(ptr noundef nonnull dereferenceable(1) @.str.7, i32 noundef %0, i32 noundef %1)
  %25 = getelementptr i8, ptr %17, i64 4
  %.val27 = load i32, ptr %25, align 4, !tbaa !3
  %26 = call i32 (ptr, ...) @printf(ptr noundef nonnull dereferenceable(1) @.str.8, i32 noundef %.val27)
  %27 = sitofp i32 %.val27 to double
  %28 = fmul double %27, 5.000000e-01
  %29 = add nsw i32 %.val27, -1
  %30 = sitofp i32 %29 to double
  %31 = fmul double %28, %30
  %32 = call i32 (ptr, ...) @printf(ptr noundef nonnull dereferenceable(1) @.str.9, double noundef %31)
  %33 = getelementptr i8, ptr %23, i64 4
  %.val = load i32, ptr %33, align 4, !tbaa !3
  %34 = call i32 (ptr, ...) @printf(ptr noundef nonnull dereferenceable(1) @.str.10, i32 noundef %.val)
  call void @llvm.lifetime.start.p0(i64 16, ptr nonnull %8) #24
  %35 = call i32 @clock_gettime(i32 noundef 1, ptr noundef nonnull %8) #24
  %36 = icmp slt i32 %35, 0
  br i1 %36, label %Abc_Clock.exit29, label %37

37:                                               ; preds = %22
  %38 = load i64, ptr %8, align 8, !tbaa !34
  %39 = mul nsw i64 %38, 1000000
  %40 = getelementptr inbounds nuw i8, ptr %8, i64 8
  %41 = load i64, ptr %40, align 8, !tbaa !36
  %42 = sdiv i64 %41, 1000
  %43 = add nsw i64 %42, %39
  br label %Abc_Clock.exit29

Abc_Clock.exit29:                                 ; preds = %22, %37
  %.0.i28 = phi i64 [ %43, %37 ], [ -1, %22 ]
  call void @llvm.lifetime.end.p0(i64 16, ptr nonnull %8) #24
  %44 = add i64 %.0.i28, %.0.i.neg
  call void (i32, ptr, ...) @Abc_Print(i32 poison, ptr noundef nonnull @.str.28, ptr noundef nonnull @.str.11)
  %45 = sitofp i64 %44 to double
  %46 = fdiv double %45, 1.000000e+06
  call void (i32, ptr, ...) @Abc_Print(i32 poison, ptr noundef nonnull @.str.29, double noundef %46)
  call void @llvm.lifetime.start.p0(i64 16, ptr nonnull %7) #24
  %47 = call i32 @clock_gettime(i32 noundef 1, ptr noundef nonnull %7) #24
  %48 = icmp slt i32 %47, 0
  br i1 %48, label %Abc_Clock.exit31, label %49

49:                                               ; preds = %Abc_Clock.exit29
  %50 = load i64, ptr %7, align 8, !tbaa !34
  %.neg39 = mul i64 %50, -1000000
  %51 = getelementptr inbounds nuw i8, ptr %7, i64 8
  %52 = load i64, ptr %51, align 8, !tbaa !36
  %.neg38 = sdiv i64 %52, -1000
  %.neg40 = add i64 %.neg38, %.neg39
  br label %Abc_Clock.exit31

Abc_Clock.exit31:                                 ; preds = %Abc_Clock.exit29, %49
  %.0.i30.neg = phi i64 [ %.neg40, %49 ], [ 1, %Abc_Clock.exit29 ]
  call void @llvm.lifetime.end.p0(i64 16, ptr nonnull %7) #24
  %53 = call i32 @Abc_SuppMinimize(ptr noundef nonnull %10, ptr noundef nonnull %23, i32 noundef %1, i32 noundef %4)
  %54 = call i32 (ptr, ...) @printf(ptr noundef nonnull dereferenceable(1) @.str.12, i32 noundef %53)
  call void @llvm.lifetime.start.p0(i64 16, ptr nonnull %6) #24
  %55 = call i32 @clock_gettime(i32 noundef 1, ptr noundef nonnull %6) #24
  %56 = icmp slt i32 %55, 0
  br i1 %56, label %Abc_Clock.exit33, label %57

57:                                               ; preds = %Abc_Clock.exit31
  %58 = load i64, ptr %6, align 8, !tbaa !34
  %59 = mul nsw i64 %58, 1000000
  %60 = getelementptr inbounds nuw i8, ptr %6, i64 8
  %61 = load i64, ptr %60, align 8, !tbaa !36
  %62 = sdiv i64 %61, 1000
  %63 = add nsw i64 %62, %59
  br label %Abc_Clock.exit33

Abc_Clock.exit33:                                 ; preds = %Abc_Clock.exit31, %57
  %.0.i32 = phi i64 [ %63, %57 ], [ -1, %Abc_Clock.exit31 ]
  call void @llvm.lifetime.end.p0(i64 16, ptr nonnull %6) #24
  %64 = add i64 %.0.i32, %.0.i30.neg
  call void (i32, ptr, ...) @Abc_Print(i32 poison, ptr noundef nonnull @.str.28, ptr noundef nonnull @.str.13)
  %65 = sitofp i64 %64 to double
  %66 = fdiv double %65, 1.000000e+06
  call void (i32, ptr, ...) @Abc_Print(i32 poison, ptr noundef nonnull @.str.29, double noundef %66)
  %.not24 = icmp eq i32 %3, 0
  br i1 %.not24, label %68, label %67

67:                                               ; preds = %Abc_Clock.exit33
  call void @Abc_SuppVerify(ptr noundef nonnull %17, ptr noundef nonnull %10, i32 noundef %1, i32 noundef %53)
  br label %68

68:                                               ; preds = %67, %Abc_Clock.exit33
  %69 = getelementptr inbounds nuw i8, ptr %23, i64 8
  %70 = load ptr, ptr %69, align 8, !tbaa !11
  %.not.i = icmp eq ptr %70, null
  br i1 %.not.i, label %Vec_WrdFree.exit, label %71

71:                                               ; preds = %68
  call void @free(ptr noundef nonnull %70) #24
  br label %Vec_WrdFree.exit

Vec_WrdFree.exit:                                 ; preds = %68, %71
  call void @free(ptr noundef nonnull %23) #24
  %72 = getelementptr inbounds nuw i8, ptr %17, i64 8
  %73 = load ptr, ptr %72, align 8, !tbaa !11
  %.not.i34 = icmp eq ptr %73, null
  br i1 %.not.i34, label %Vec_WrdFree.exit35, label %74

74:                                               ; preds = %Vec_WrdFree.exit
  call void @free(ptr noundef nonnull %73) #24
  br label %Vec_WrdFree.exit35

Vec_WrdFree.exit35:                               ; preds = %Vec_WrdFree.exit, %74
  call void @free(ptr noundef nonnull %17) #24
  call void @llvm.lifetime.end.p0(i64 512, ptr nonnull %10) #24
  ret void
}